target datalayout = "e-m:e-p270:32:32-p271:32:32-p272:64:64-i64:64-i128:128-f80:128-n8:16:32:64-S128"
target triple = "x86_64-pc-linux-gnu"

%struct.anon = type { double, double, double, double, double }

@.str.27 = private unnamed_addr constant [22 x i8] c"\0AMaximum sensitivity\0A\00", align 1
@.str.28 = private unnamed_addr constant [19 x i8] c"  lambda max = %e\0A\00", align 1
@.str.29 = private unnamed_addr constant [4 x i8] c"at\0A\00", align 1
@.str.30 = private unnamed_addr constant [19 x i8] c"  x = %e\0A  y = %e\0A\00", align 1

; Function Attrs: nounwind uwtable
define internal void @PrintOutput(ptr noundef %0, ptr noundef %1) #0 {
  %3 = alloca ptr, align 8
  %4 = alloca ptr, align 8
  %5 = alloca ptr, align 8
  %6 = alloca double, align 8
  %7 = alloca double, align 8
  %8 = alloca double, align 8
  %9 = alloca double, align 8
  %10 = alloca double, align 8
  %11 = alloca double, align 8
  %12 = alloca i32, align 4
  %13 = alloca i32, align 4
  store ptr %0, ptr %3, align 8, !tbaa !12
  store ptr %1, ptr %4, align 8, !tbaa !11
  call void @llvm.lifetime.start.p0(i64 8, ptr %5) #6
  call void @llvm.lifetime.start.p0(i64 8, ptr %6) #6
  call void @llvm.lifetime.start.p0(i64 8, ptr %7) #6
  call void @llvm.lifetime.start.p0(i64 8, ptr %8) #6
  call void @llvm.lifetime.start.p0(i64 8, ptr %9) #6
  call void @llvm.lifetime.start.p0(i64 8, ptr %10) #6
  call void @llvm.lifetime.start.p0(i64 8, ptr %11) #6
  call void @llvm.lifetime.start.p0(i64 4, ptr %12) #6
  call void @llvm.lifetime.start.p0(i64 4, ptr %13) #6
  store double 0.000000e+00, ptr %9, align 8, !tbaa !21
  store double 0.000000e+00, ptr %8, align 8, !tbaa !21
  %14 = load ptr, ptr %4, align 8, !tbaa !11
  %15 = getelementptr inbounds nuw %struct.anon, ptr %14, i32 0, i32 0
  %16 = load double, ptr %15, align 8, !tbaa !18
  store double %16, ptr %10, align 8, !tbaa !21
  %17 = load ptr, ptr %4, align 8, !tbaa !11
  %18 = getelementptr inbounds nuw %struct.anon, ptr %17, i32 0, i32 1
  %19 = load double, ptr %18, align 8, !tbaa !22
  store double %19, ptr %11, align 8, !tbaa !21
  %20 = load ptr, ptr %3, align 8, !tbaa !12
  %21 = call ptr @N_VGetArrayPointer(ptr noundef %20)
  store ptr %21, ptr %5, align 8, !tbaa !34
  store double 0.000000e+00, ptr %7, align 8, !tbaa !21
  store i32 1, ptr %13, align 4, !tbaa !4
  br label %22

22:                                               ; preds = %59, %2
  %23 = load i32, ptr %13, align 4, !tbaa !4
  %24 = icmp sle i32 %23, 20
  br i1 %24, label %25, label %62

25:                                               ; preds = %22
  store i32 1, ptr %12, align 4, !tbaa !4
  br label %26

26:                                               ; preds = %55, %25
  %27 = load i32, ptr %12, align 4, !tbaa !4
  %28 = icmp sle i32 %27, 40
  br i1 %28, label %29, label %58

29:                                               ; preds = %26
  %30 = load ptr, ptr %5, align 8, !tbaa !34
  %31 = load i32, ptr %13, align 4, !tbaa !4
  %32 = sub nsw i32 %31, 1
  %33 = load i32, ptr %12, align 4, !tbaa !4
  %34 = sub nsw i32 %33, 1
  %35 = mul nsw i32 %34, 20
  %36 = add nsw i32 %32, %35
  %37 = sext i32 %36 to i64
  %38 = getelementptr inbounds double, ptr %30, i64 %37
  %39 = load double, ptr %38, align 8, !tbaa !21
  store double %39, ptr %6, align 8, !tbaa !21
  %40 = load double, ptr %6, align 8, !tbaa !21
  %41 = call double @llvm.fabs.f64(double %40)
  %42 = load double, ptr %7, align 8, !tbaa !21
  %43 = fcmp ogt double %41, %42
  br i1 %43, label %44, label %54

44:                                               ; preds = %29
  %45 = load double, ptr %6, align 8, !tbaa !21
  store double %45, ptr %7, align 8, !tbaa !21
  %46 = load i32, ptr %12, align 4, !tbaa !4
  %47 = sitofp i32 %46 to double
  %48 = load double, ptr %10, align 8, !tbaa !21
  %49 = fmul double %47, %48
  store double %49, ptr %8, align 8, !tbaa !21
  %50 = load i32, ptr %13, align 4, !tbaa !4
  %51 = sitofp i32 %50 to double
  %52 = load double, ptr %11, align 8, !tbaa !21
  %53 = fmul double %51, %52
  store double %53, ptr %9, align 8, !tbaa !21
  br label %54

54:                                               ; preds = %44, %29
  br label %55

55:                                               ; preds = %54
  %56 = load i32, ptr %12, align 4, !tbaa !4
  %57 = add nsw i32 %56, 1
  store i32 %57, ptr %12, align 4, !tbaa !4
  br label %26

58:                                               ; preds = %26
  br label %59

59:                                               ; preds = %58
  %60 = load i32, ptr %13, align 4, !tbaa !4
  %61 = add nsw i32 %60, 1
  store i32 %61, ptr %13, align 4, !tbaa !4
  br label %22

62:                                               ; preds = %22
  %63 = call i32 (ptr, ...) @printf(ptr noundef @.str.27)
  %64 = load double, ptr %7, align 8, !tbaa !21
  %65 = call i32 (ptr, ...) @printf(ptr noundef @.str.28, double noundef %64)
  %66 = call i32 (ptr, ...) @printf(ptr noundef @.str.29)
  %67 = load double, ptr %8, align 8, !tbaa !21
  %68 = load double, ptr %9, align 8, !tbaa !21
  %69 = call i32 (ptr, ...) @printf(ptr noundef @.str.30, double noundef %67, double noundef %68)
  call void @llvm.lifetime.end.p0(i64 4, ptr %13) #6
  call void @llvm.lifetime.end.p0(i64 4, ptr %12) #6
  call void @llvm.lifetime.end.p0(i64 8, ptr %11) #6
  call void @llvm.lifetime.end.p0(i64 8, ptr %10) #6
  call void @llvm.lifetime.end.p0(i64 8, ptr %9) #6
  call void @llvm.lifetime.end.p0(i64 8, ptr %8) #6
  call void @llvm.lifetime.end.p0(i64 8, ptr %7) #6
  call void @llvm.lifetime.end.p0(i64 8, ptr %6) #6
  call void @llvm.lifetime.end.p0(i64 8, ptr %5) #6
  ret void
}