; Function Attrs: nounwind uwtable
define internal fastcc void @PrintOutput(ptr noundef %0, double %.0.val, double %.8.val) unnamed_addr #0 {
  %2 = tail call ptr @N_VGetArrayPointer(ptr noundef %0) #9
  %invariant.gep = getelementptr i8, ptr %2, i64 -168
  br label %.preheader

.preheader:                                       ; preds = %1, %13
  %indvars.iv10 = phi i64 [ 1, %1 ], [ %indvars.iv.next11, %13 ]
  %.0207 = phi double [ 0.000000e+00, %1 ], [ %.2, %13 ]
  %.0216 = phi double [ 0.000000e+00, %1 ], [ %.223, %13 ]
  %.0245 = phi double [ 0.000000e+00, %1 ], [ %.226, %13 ]
  %3 = trunc nuw nsw i64 %indvars.iv10 to i32
  %4 = uitofp nneg i32 %3 to double
  %5 = fmul double %.8.val, %4
  %invariant.gep14 = getelementptr double, ptr %invariant.gep, i64 %indvars.iv10
  br label %6

6:                                                ; preds = %.preheader, %6
  %indvars.iv = phi i64 [ 1, %.preheader ], [ %indvars.iv.next, %6 ]
  %.13 = phi double [ %.0207, %.preheader ], [ %.2, %6 ]
  %.1222 = phi double [ %.0216, %.preheader ], [ %.223, %6 ]
  %.1251 = phi double [ %.0245, %.preheader ], [ %.226, %6 ]
  %.idx = mul i64 %indvars.iv, 160
  %gep15 = getelementptr i8, ptr %invariant.gep14, i64 %.idx
  %7 = load double, ptr %gep15, align 8, !tbaa !20
  %8 = tail call double @llvm.fabs.f64(double %7)
  %9 = fcmp ogt double %8, %.13
  %10 = trunc nuw nsw i64 %indvars.iv to i32
  %11 = uitofp nneg i32 %10 to double
  %12 = fmul double %.0.val, %11
  %.226 = select i1 %9, double %5, double %.1251
  %.223 = select i1 %9, double %12, double %.1222
  %.2 = select i1 %9, double %7, double %.13
  %indvars.iv.next = add nuw nsw i64 %indvars.iv, 1
  %exitcond.not = icmp eq i64 %indvars.iv.next, 41
  br i1 %exitcond.not, label %13, label %6

13:                                               ; preds = %6
  %indvars.iv.next11 = add nuw nsw i64 %indvars.iv10, 1
  %exitcond13.not = icmp eq i64 %indvars.iv.next11, 21
  br i1 %exitcond13.not, label %14, label %.preheader

14:                                               ; preds = %13
  %puts = tail call i32 @puts(ptr nonnull dereferenceable(1) @str.5)
  %15 = tail call i32 (ptr, ...) @printf(ptr noundef nonnull dereferenceable(1) @.str.28, double noundef %.2)
  %puts27 = tail call i32 @puts(ptr nonnull dereferenceable(1) @str.6)
  %16 = tail call i32 (ptr, ...) @printf(ptr noundef nonnull dereferenceable(1) @.str.30, double noundef %.223, double noundef %.226)
  ret void
}